; Function Attrs: nounwind uwtable
define range(i32 1, 0) i32 @lv_obj_calculate_style_text_align(ptr noundef readonly captures(address_is_null) %0, i32 noundef %1, ptr noundef readnone captures(none) %2) local_unnamed_addr #0 {
  %4 = alloca %union.lv_style_value_t, align 8
  %5 = alloca %union.lv_style_value_t, align 8
  %.not.i.i = icmp eq ptr %0, null
  br i1 %.not.i.i, label %.preheader.i.i, label %6

.preheader.i.i:                                   ; preds = %3, %.preheader.i.i
  br label %.preheader.i.i

6:                                                ; preds = %3
  %7 = getelementptr inbounds nuw i8, ptr %0, i64 60
  %8 = load i16, ptr %7, align 4, !tbaa !62
  %9 = zext i16 %8 to i32
  %10 = or i32 %1, %9
  call void @llvm.lifetime.start.p0(i64 8, ptr nonnull %5) #9
  store i64 0, ptr %5, align 8
  %11 = and i32 %1, 16711680
  %12 = call fastcc i32 @get_prop_core(ptr noundef nonnull readonly %0, i32 noundef %10, i8 noundef zeroext 94, ptr noundef nonnull %5)
  %.not54.i.i = icmp eq i32 %12, 0
  br i1 %.not54.i.i, label %13, label %get_selector_style_prop.exit.i

13:                                               ; preds = %6
  %.037.in.i.i = load i8, ptr getelementptr inbounds nuw (i8, ptr @lv_style_builtin_prop_flag_lookup_table, i64 94), align 1, !tbaa !37
  %14 = trunc i8 %.037.in.i.i to i1
  br i1 %14, label %15, label %.thread.i.i

15:                                               ; preds = %13
  %.not51.i.i = icmp eq i32 %11, 0
  br i1 %.not51.i.i, label %16, label %.lr.ph63.i.i.preheader

16:                                               ; preds = %15
  %17 = getelementptr inbounds nuw i8, ptr %0, i64 8
  %18 = load ptr, ptr %17, align 8, !tbaa !63
  %.not5261.i.i = icmp eq ptr %18, null
  br i1 %.not5261.i.i, label %.thread.i.i, label %.lr.ph63.i.i.preheader

.lr.ph63.i.i.preheader:                           ; preds = %16, %15
  %.14262.i.i.ph = phi ptr [ %0, %15 ], [ %18, %16 ]
  br label %.lr.ph63.i.i

.lr.ph63.i.i:                                     ; preds = %.lr.ph63.i.i.preheader, %23
  %.14262.i.i = phi ptr [ %25, %23 ], [ %.14262.i.i.ph, %.lr.ph63.i.i.preheader ]
  %19 = getelementptr inbounds nuw i8, ptr %.14262.i.i, i64 60
  %20 = load i16, ptr %19, align 4, !tbaa !62
  %21 = zext i16 %20 to i32
  %22 = call fastcc i32 @get_prop_core(ptr noundef %.14262.i.i, i32 noundef %21, i8 noundef zeroext 94, ptr noundef nonnull %5)
  %.not55.i.i = icmp eq i32 %22, 0
  br i1 %.not55.i.i, label %23, label %get_selector_style_prop.exit.i

23:                                               ; preds = %.lr.ph63.i.i
  %24 = getelementptr inbounds nuw i8, ptr %.14262.i.i, i64 8
  %25 = load ptr, ptr %24, align 8, !tbaa !63
  %.not52.i.i = icmp eq ptr %25, null
  br i1 %.not52.i.i, label %.thread.i.i, label %.lr.ph63.i.i, !llvm.loop !64

get_selector_style_prop.exit.i:                   ; preds = %.lr.ph63.i.i, %6
  %.sroa.0.0.copyload.i.i = load ptr, ptr %5, align 8, !tbaa !37
  br label %27

.thread.i.i:                                      ; preds = %23, %16, %13
  %26 = tail call ptr @lv_style_prop_get_default(i8 noundef zeroext 94) #9
  %.pre = load i16, ptr %7, align 4, !tbaa !62
  %.pre22 = zext i16 %.pre to i32
  %.pre23 = or i32 %1, %.pre22
  br label %27

27:                                               ; preds = %.thread.i.i, %get_selector_style_prop.exit.i
  %.pre-phi24 = phi i32 [ %.pre23, %.thread.i.i ], [ %10, %get_selector_style_prop.exit.i ]
  %.sroa.0.0.i.i = phi ptr [ %26, %.thread.i.i ], [ %.sroa.0.0.copyload.i.i, %get_selector_style_prop.exit.i ]
  call void @llvm.lifetime.end.p0(i64 8, ptr nonnull %5) #9
  call void @llvm.lifetime.start.p0(i64 8, ptr nonnull %4) #9
  store i64 0, ptr %4, align 8
  %28 = call fastcc i32 @get_prop_core(ptr noundef nonnull readonly %0, i32 noundef %.pre-phi24, i8 noundef zeroext 39, ptr noundef nonnull %4)
  %.not54.i.i5 = icmp eq i32 %28, 0
  br i1 %.not54.i.i5, label %29, label %lv_obj_get_style_base_dir.exit

29:                                               ; preds = %27
  %.037.in.i.i10 = load i8, ptr getelementptr inbounds nuw (i8, ptr @lv_style_builtin_prop_flag_lookup_table, i64 39), align 1, !tbaa !37
  %30 = trunc i8 %.037.in.i.i10 to i1
  br i1 %30, label %31, label %.thread.i.i11

31:                                               ; preds = %29
  %.not51.i.i12 = icmp eq i32 %11, 0
  br i1 %.not51.i.i12, label %32, label %.lr.ph63.i.i15.preheader

32:                                               ; preds = %31
  %33 = getelementptr inbounds nuw i8, ptr %0, i64 8
  %34 = load ptr, ptr %33, align 8, !tbaa !63
  %.not5261.i.i19 = icmp eq ptr %34, null
  br i1 %.not5261.i.i19, label %.thread.i.i11, label %.lr.ph63.i.i15.preheader

.lr.ph63.i.i15.preheader:                         ; preds = %32, %31
  %.14262.i.i16.ph = phi ptr [ %0, %31 ], [ %34, %32 ]
  br label %.lr.ph63.i.i15

.lr.ph63.i.i15:                                   ; preds = %.lr.ph63.i.i15.preheader, %39
  %.14262.i.i16 = phi ptr [ %41, %39 ], [ %.14262.i.i16.ph, %.lr.ph63.i.i15.preheader ]
  %35 = getelementptr inbounds nuw i8, ptr %.14262.i.i16, i64 60
  %36 = load i16, ptr %35, align 4, !tbaa !62
  %37 = zext i16 %36 to i32
  %38 = call fastcc i32 @get_prop_core(ptr noundef %.14262.i.i16, i32 noundef %37, i8 noundef zeroext 39, ptr noundef nonnull %4)
  %.not55.i.i17 = icmp eq i32 %38, 0
  br i1 %.not55.i.i17, label %39, label %lv_obj_get_style_base_dir.exit

39:                                               ; preds = %.lr.ph63.i.i15
  %40 = getelementptr inbounds nuw i8, ptr %.14262.i.i16, i64 8
  %41 = load ptr, ptr %40, align 8, !tbaa !63
  %.not52.i.i18 = icmp eq ptr %41, null
  br i1 %.not52.i.i18, label %.thread.i.i11, label %.lr.ph63.i.i15, !llvm.loop !64

.thread.i.i11:                                    ; preds = %39, %32, %29
  %42 = tail call ptr @lv_style_prop_get_default(i8 noundef zeroext 39) #9
  br label %lv_obj_get_style_base_dir.exit

lv_obj_get_style_base_dir.exit:                   ; preds = %.lr.ph63.i.i15, %27, %.thread.i.i11
  %43 = ptrtoint ptr %.sroa.0.0.i.i to i64
  %.sroa.0.0.extract.trunc.i = trunc i64 %43 to i32
  call void @llvm.lifetime.end.p0(i64 8, ptr nonnull %4) #9
  %spec.select = tail call i32 @llvm.umax.i32(i32 %.sroa.0.0.extract.trunc.i, i32 1)
  ret i32 %spec.select
}